target datalayout = "e-m:e-p270:32:32-p271:32:32-p272:64:64-i64:64-i128:128-f80:128-n8:16:32:64-S128"
target triple = "x86_64-unknown-linux-gnu"

%"class.QuantLib::Date" = type { i64 }

; Function Attrs: inlinehint mustprogress uwtable
define linkonce_odr i64 @_ZNK8QuantLib4DateplEl(ptr noundef nonnull align 8 dereferenceable(8) %this, i64 noundef %days) #6 comdat align 2 {
entry:
  %retval = alloca %"class.QuantLib::Date", align 8
  %this.addr = alloca ptr, align 8
  %days.addr = alloca i64, align 8
  store ptr %this, ptr %this.addr, align 8, !tbaa !3
  store i64 %days, ptr %days.addr, align 8, !tbaa !16
  %this1 = load ptr, ptr %this.addr, align 8
  %serialNumber_ = getelementptr inbounds nuw %"class.QuantLib::Date", ptr %this1, i32 0, i32 0
  %0 = load i64, ptr %serialNumber_, align 8, !tbaa !13
  %1 = load i64, ptr %days.addr, align 8, !tbaa !16
  %add = add nsw i64 %0, %1
  call void @_ZN8QuantLib4DateC1El(ptr noundef nonnull align 8 dereferenceable(8) %retval, i64 noundef %add)
  %coerce.dive = getelementptr inbounds nuw %"class.QuantLib::Date", ptr %retval, i32 0, i32 0
  %2 = load i64, ptr %coerce.dive, align 8
  ret i64 %2
}

; Function Attrs: mustprogress uwtable
define i64 @_ZN8QuantLib3IMM8nextDateERKNSt7__cxx1112basic_stringIcSt11char_traitsIcESaIcEEEbRKNS_4DateE(ptr noundef nonnull align 8 dereferenceable(32) %IMMcode, i1 noundef zeroext %mainCycle, ptr noundef nonnull align 8 dereferenceable(8) %referenceDate) #4 align 2 {
entry:
  %retval = alloca %"class.QuantLib::Date", align 8
  %IMMcode.addr = alloca ptr, align 8
  %mainCycle.addr = alloca i8, align 1
  %referenceDate.addr = alloca ptr, align 8
  %immDate = alloca %"class.QuantLib::Date", align 8
  %ref.tmp = alloca %"class.QuantLib::Date", align 8
  store ptr %IMMcode, ptr %IMMcode.addr, align 8, !tbaa !3
  %storedv = zext i1 %mainCycle to i8
  store i8 %storedv, ptr %mainCycle.addr, align 1, !tbaa !7
  store ptr %referenceDate, ptr %referenceDate.addr, align 8, !tbaa !3
  call void @llvm.lifetime.start.p0(i64 8, ptr %immDate) #10
  %0 = load ptr, ptr %IMMcode.addr, align 8, !tbaa !3
  %1 = load ptr, ptr %referenceDate.addr, align 8, !tbaa !3
  %call = call i64 @_ZN8QuantLib3IMM4dateERKNSt7__cxx1112basic_stringIcSt11char_traitsIcESaIcEEERKNS_4DateE(ptr noundef nonnull align 8 dereferenceable(32) %0, ptr noundef nonnull align 8 dereferenceable(8) %1)
  %coerce.dive = getelementptr inbounds nuw %"class.QuantLib::Date", ptr %immDate, i32 0, i32 0
  store i64 %call, ptr %coerce.dive, align 8
  call void @llvm.lifetime.start.p0(i64 8, ptr %ref.tmp) #10
  %call1 = call i64 @_ZNK8QuantLib4DateplEl(ptr noundef nonnull align 8 dereferenceable(8) %immDate, i64 noundef 1)
  %coerce.dive2 = getelementptr inbounds nuw %"class.QuantLib::Date", ptr %ref.tmp, i32 0, i32 0
  store i64 %call1, ptr %coerce.dive2, align 8
  %2 = load i8, ptr %mainCycle.addr, align 1, !tbaa !7, !range !11, !noundef !12
  %loadedv = trunc i8 %2 to i1
  %call3 = call i64 @_ZN8QuantLib3IMM8nextDateERKNS_4DateEb(ptr noundef nonnull align 8 dereferenceable(8) %ref.tmp, i1 noundef zeroext %loadedv)
  %coerce.dive4 = getelementptr inbounds nuw %"class.QuantLib::Date", ptr %retval, i32 0, i32 0
  store i64 %call3, ptr %coerce.dive4, align 8
  call void @llvm.lifetime.end.p0(i64 8, ptr %ref.tmp) #10
  call void @llvm.lifetime.end.p0(i64 8, ptr %immDate) #10
  %coerce.dive5 = getelementptr inbounds nuw %"class.QuantLib::Date", ptr %retval, i32 0, i32 0
  %3 = load i64, ptr %coerce.dive5, align 8
  ret i64 %3
}