; Function Attrs: mustprogress uwtable
define i64 @_ZN8QuantLib3IMM8nextDateERKNSt7__cxx1112basic_stringIcSt11char_traitsIcESaIcEEEbRKNS_4DateE(ptr nocapture noundef nonnull readonly align 8 dereferenceable(32) %IMMcode, i1 noundef zeroext %mainCycle, ptr nocapture noundef nonnull readonly align 8 dereferenceable(8) %referenceDate) local_unnamed_addr #3 align 2 {
entry:
  %ref.tmp = alloca %"class.QuantLib::Date", align 8
  %call = tail call i64 @_ZN8QuantLib3IMM4dateERKNSt7__cxx1112basic_stringIcSt11char_traitsIcESaIcEEERKNS_4DateE(ptr noundef nonnull align 8 dereferenceable(32) %IMMcode, ptr noundef nonnull align 8 dereferenceable(8) %referenceDate)
  call void @llvm.lifetime.start.p0(i64 8, ptr nonnull %ref.tmp) #18
  %add.i = add nsw i64 %call, 1
  call void @_ZN8QuantLib4DateC1El(ptr noundef nonnull align 8 dereferenceable(8) %ref.tmp, i64 noundef %add.i)
  %call3 = call i64 @_ZN8QuantLib3IMM8nextDateERKNS_4DateEb(ptr noundef nonnull align 8 dereferenceable(8) %ref.tmp, i1 noundef zeroext %mainCycle)
  call void @llvm.lifetime.end.p0(i64 8, ptr nonnull %ref.tmp) #18
  ret i64 %call3
}